target datalayout = "e-m:e-p270:32:32-p271:32:32-p272:64:64-i64:64-i128:128-f80:128-n8:16:32:64-S128"
target triple = "x86_64-unknown-linux-gnu"

%"class.QuantLib::Date" = type { i64 }

; Function Attrs: mustprogress uwtable
define noundef double @_ZNK8QuantLib4Bond15settlementValueEd(ptr noundef nonnull align 8 dereferenceable(248) %this, double noundef %cleanPrice) #2 align 2 {
entry:
  %this.addr = alloca ptr, align 8
  %cleanPrice.addr = alloca double, align 8
  %dirtyPrice = alloca double, align 8
  %agg.tmp = alloca %"class.QuantLib::Date", align 8
  %agg.tmp2 = alloca %"class.QuantLib::Date", align 8
  %agg.tmp6 = alloca %"class.QuantLib::Date", align 8
  %agg.tmp7 = alloca %"class.QuantLib::Date", align 8
  store ptr %this, ptr %this.addr, align 8, !tbaa !3
  store double %cleanPrice, ptr %cleanPrice.addr, align 8, !tbaa !62
  %this1 = load ptr, ptr %this.addr, align 8
  call void @llvm.lifetime.start.p0(i64 8, ptr %dirtyPrice) #17
  %0 = load double, ptr %cleanPrice.addr, align 8, !tbaa !62
  call void @_ZN8QuantLib4DateC1Ev(ptr noundef nonnull align 8 dereferenceable(8) %agg.tmp2)
  %coerce.dive = getelementptr inbounds nuw %"class.QuantLib::Date", ptr %agg.tmp2, i32 0, i32 0
  %1 = load i64, ptr %coerce.dive, align 8
  %call = call i64 @_ZNK8QuantLib4Bond14settlementDateENS_4DateE(ptr noundef nonnull align 8 dereferenceable(248) %this1, i64 %1)
  %coerce.dive3 = getelementptr inbounds nuw %"class.QuantLib::Date", ptr %agg.tmp, i32 0, i32 0
  store i64 %call, ptr %coerce.dive3, align 8
  %coerce.dive4 = getelementptr inbounds nuw %"class.QuantLib::Date", ptr %agg.tmp, i32 0, i32 0
  %2 = load i64, ptr %coerce.dive4, align 8
  %vtable = load ptr, ptr %this1, align 8, !tbaa !20
  %vfn = getelementptr inbounds ptr, ptr %vtable, i64 11
  %3 = load ptr, ptr %vfn, align 8
  %call5 = call noundef double %3(ptr noundef nonnull align 8 dereferenceable(248) %this1, i64 %2)
  %add = fadd double %0, %call5
  store double %add, ptr %dirtyPrice, align 8, !tbaa !62
  %4 = load double, ptr %dirtyPrice, align 8, !tbaa !62
  %div = fdiv double %4, 1.000000e+02
  call void @_ZN8QuantLib4DateC1Ev(ptr noundef nonnull align 8 dereferenceable(8) %agg.tmp7)
  %coerce.dive8 = getelementptr inbounds nuw %"class.QuantLib::Date", ptr %agg.tmp7, i32 0, i32 0
  %5 = load i64, ptr %coerce.dive8, align 8
  %call9 = call i64 @_ZNK8QuantLib4Bond14settlementDateENS_4DateE(ptr noundef nonnull align 8 dereferenceable(248) %this1, i64 %5)
  %coerce.dive10 = getelementptr inbounds nuw %"class.QuantLib::Date", ptr %agg.tmp6, i32 0, i32 0
  store i64 %call9, ptr %coerce.dive10, align 8
  %coerce.dive11 = getelementptr inbounds nuw %"class.QuantLib::Date", ptr %agg.tmp6, i32 0, i32 0
  %6 = load i64, ptr %coerce.dive11, align 8
  %vtable12 = load ptr, ptr %this1, align 8, !tbaa !20
  %vfn13 = getelementptr inbounds ptr, ptr %vtable12, i64 10
  %7 = load ptr, ptr %vfn13, align 8
  %call14 = call noundef double %7(ptr noundef nonnull align 8 dereferenceable(248) %this1, i64 %6)
  %mul = fmul double %div, %call14
  call void @llvm.lifetime.end.p0(i64 8, ptr %dirtyPrice) #17
  ret double %mul
}