; Function Attrs: mustprogress uwtable
define noundef double @_ZNK8QuantLib4Bond15settlementValueEd(ptr noundef nonnull align 8 dereferenceable(248) %this, double noundef %cleanPrice) local_unnamed_addr #9 align 2 {
entry:
  %agg.tmp2 = alloca %"class.QuantLib::Date", align 8
  %agg.tmp7 = alloca %"class.QuantLib::Date", align 8
  call void @_ZN8QuantLib4DateC1Ev(ptr noundef nonnull align 8 dereferenceable(8) %agg.tmp2)
  %0 = load i64, ptr %agg.tmp2, align 8
  %call = call i64 @_ZNK8QuantLib4Bond14settlementDateENS_4DateE(ptr noundef nonnull align 8 dereferenceable(248) %this, i64 %0)
  %vtable = load ptr, ptr %this, align 8, !tbaa !33
  %vfn = getelementptr inbounds i8, ptr %vtable, i64 88
  %1 = load ptr, ptr %vfn, align 8
  %call5 = call noundef double %1(ptr noundef nonnull align 8 dereferenceable(248) %this, i64 %call)
  %add = fadd double %cleanPrice, %call5
  %div = fdiv double %add, 1.000000e+02
  call void @_ZN8QuantLib4DateC1Ev(ptr noundef nonnull align 8 dereferenceable(8) %agg.tmp7)
  %2 = load i64, ptr %agg.tmp7, align 8
  %call9 = call i64 @_ZNK8QuantLib4Bond14settlementDateENS_4DateE(ptr noundef nonnull align 8 dereferenceable(248) %this, i64 %2)
  %vtable12 = load ptr, ptr %this, align 8, !tbaa !33
  %vfn13 = getelementptr inbounds i8, ptr %vtable12, i64 80
  %3 = load ptr, ptr %vfn13, align 8
  %call14 = call noundef double %3(ptr noundef nonnull align 8 dereferenceable(248) %this, i64 %call9)
  %mul = fmul double %div, %call14
  ret double %mul
}